; Function Attrs: inlinehint nounwind uwtable
define internal fastcc ptr @lean_int_neg(ptr noundef %0) unnamed_addr #0 {
  %2 = ptrtoint ptr %0 to i64
  %3 = and i64 %2, 1
  %.not = icmp eq i64 %3, 0
  br i1 %.not, label %17, label %4, !prof !12

4:                                                ; preds = %1
  %5 = shl i64 %2, 31
  %6 = ashr i64 %5, 32
  %7 = sub nsw i64 0, %6
  %8 = add nsw i64 %6, 2147483647
  %9 = icmp ult i64 %8, 4294967296
  br i1 %9, label %10, label %15, !prof !11

10:                                               ; preds = %4
  %11 = shl nsw i64 %7, 1
  %12 = and i64 %11, 8589934590
  %13 = or disjoint i64 %12, 1
  %14 = inttoptr i64 %13 to ptr
  br label %lean_int64_to_int.exit

15:                                               ; preds = %4
  %16 = tail call ptr @lean_big_int64_to_int(i64 noundef range(i64 -4294967295, 4294967296) %7) #7
  br label %lean_int64_to_int.exit

17:                                               ; preds = %1
  %18 = tail call ptr @lean_int_big_neg(ptr noundef %0) #7
  br label %lean_int64_to_int.exit

lean_int64_to_int.exit:                           ; preds = %15, %10, %17
  %.0 = phi ptr [ %18, %17 ], [ %14, %10 ], [ %16, %15 ]
  ret ptr %.0
}